; ModuleID = 'source-C-CXX/60/227.cpp'
source_filename = "source-C-CXX/60/227.cpp"
target datalayout = "e-m:e-p270:32:32-p271:32:32-p272:64:64-i64:64-f80:128-n8:16:32:64-S128"
target triple = "x86_64-pc-linux-gnu"

%"class.std::ios_base::Init" = type { i8 }
%"class.std::basic_istream" = type { i32 (...)**, i64, %"class.std::basic_ios" }
%"class.std::basic_ios" = type { %"class.std::ios_base", %"class.std::basic_ostream"*, i8, i8, %"class.std::basic_streambuf"*, %"class.std::ctype"*, %"class.std::num_put"*, %"class.std::num_get"* }
%"class.std::ios_base" = type { i32 (...)**, i64, i64, i32, i32, i32, %"struct.std::ios_base::_Callback_list"*, %"struct.std::ios_base::_Words", [8 x %"struct.std::ios_base::_Words"], i32, %"struct.std::ios_base::_Words"*, %"class.std::locale" }
%"struct.std::ios_base::_Callback_list" = type { %"struct.std::ios_base::_Callback_list"*, void (i32, %"class.std::ios_base"*, i32)*, i32, i32 }
%"struct.std::ios_base::_Words" = type { i8*, i64 }
%"class.std::locale" = type { %"class.std::locale::_Impl"* }
%"class.std::locale::_Impl" = type { i32, %"class.std::locale::facet"**, i64, %"class.std::locale::facet"**, i8** }
%"class.std::locale::facet" = type <{ i32 (...)**, i32, [4 x i8] }>
%"class.std::basic_ostream" = type { i32 (...)**, %"class.std::basic_ios" }
%"class.std::basic_streambuf" = type { i32 (...)**, i8*, i8*, i8*, i8*, i8*, i8*, %"class.std::locale" }
%"class.std::ctype" = type <{ %"class.std::locale::facet.base", [4 x i8], %struct.__locale_struct*, i8, [7 x i8], i32*, i32*, i16*, i8, [256 x i8], [256 x i8], i8, [6 x i8] }>
%"class.std::locale::facet.base" = type <{ i32 (...)**, i32 }>
%struct.__locale_struct = type { [13 x %struct.__locale_data*], i16*, i32*, i32*, [13 x i8*] }
%struct.__locale_data = type opaque
%"class.std::num_put" = type { %"class.std::locale::facet.base", [4 x i8] }
%"class.std::num_get" = type { %"class.std::locale::facet.base", [4 x i8] }

@_ZStL8__ioinit = internal global %"class.std::ios_base::Init" zeroinitializer, align 1
@__dso_handle = external hidden global i8
@_ZSt3cin = external global %"class.std::basic_istream", align 8
@_ZSt4cout = external global %"class.std::basic_ostream", align 8
@llvm.global_ctors = appending global [1 x { i32, void ()*, i8* }] [{ i32, void ()*, i8* } { i32 65535, void ()* @_GLOBAL__sub_I_227.cpp, i8* null }]

declare void @_ZNSt8ios_base4InitC1Ev(%"class.std::ios_base::Init"* nonnull align 1 dereferenceable(1)) unnamed_addr #0

; Function Attrs: nounwind
declare void @_ZNSt8ios_base4InitD1Ev(%"class.std::ios_base::Init"* nonnull align 1 dereferenceable(1)) unnamed_addr #1

; Function Attrs: nofree nounwind
declare i32 @__cxa_atexit(void (i8*)*, i8*, i8*) local_unnamed_addr #2

; Function Attrs: mustprogress norecurse sspstrong uwtable
define dso_local i32 @main() local_unnamed_addr #3 {
  %1 = alloca i32, align 4
  %2 = alloca i32, align 4
  %3 = bitcast i32* %1 to i8*
  call void @llvm.lifetime.start.p0i8(i64 4, i8* nonnull %3) #7
  %4 = bitcast i32* %2 to i8*
  call void @llvm.lifetime.start.p0i8(i64 4, i8* nonnull %4) #7
  %5 = call nonnull align 8 dereferenceable(16) %"class.std::basic_istream"* @_ZNSirsERi(%"class.std::basic_istream"* nonnull align 8 dereferenceable(16) @_ZSt3cin, i32* nonnull align 4 dereferenceable(4) %2)
  %6 = load i32, i32* %2, align 4, !tbaa !5
  %7 = icmp slt i32 %6, 1
  br i1 %7, label %81, label %8

8:                                                ; preds = %0, %74
  %9 = phi i32 [ %78, %74 ], [ 1, %0 ]
  %10 = call nonnull align 8 dereferenceable(16) %"class.std::basic_istream"* @_ZNSirsERi(%"class.std::basic_istream"* nonnull align 8 dereferenceable(16) @_ZSt3cin, i32* nonnull align 4 dereferenceable(4) %1)
  %11 = load i32, i32* %1, align 4, !tbaa !5
  %12 = icmp slt i32 %11, 1
  br i1 %12, label %42, label %13

13:                                               ; preds = %8
  %14 = add i32 %11, -1
  %15 = and i32 %11, 7
  %16 = icmp ult i32 %14, 7
  br i1 %16, label %32, label %17

17:                                               ; preds = %13
  %18 = and i32 %11, -8
  br label %19

19:                                               ; preds = %19, %17
  %20 = phi <2 x double> [ <double 1.000000e+00, double 1.000000e+00>, %17 ], [ %29, %19 ]
  %21 = phi i32 [ %18, %17 ], [ %30, %19 ]
  %22 = fmul <2 x double> %20, <double 0xBFE3C6EF372FE950, double 0x3FF9E3779B97F4A8>
  %23 = fmul <2 x double> %22, <double 0xBFE3C6EF372FE950, double 0x3FF9E3779B97F4A8>
  %24 = fmul <2 x double> %23, <double 0xBFE3C6EF372FE950, double 0x3FF9E3779B97F4A8>
  %25 = fmul <2 x double> %24, <double 0xBFE3C6EF372FE950, double 0x3FF9E3779B97F4A8>
  %26 = fmul <2 x double> %25, <double 0xBFE3C6EF372FE950, double 0x3FF9E3779B97F4A8>
  %27 = fmul <2 x double> %26, <double 0xBFE3C6EF372FE950, double 0x3FF9E3779B97F4A8>
  %28 = fmul <2 x double> %27, <double 0xBFE3C6EF372FE950, double 0x3FF9E3779B97F4A8>
  %29 = fmul <2 x double> %28, <double 0xBFE3C6EF372FE950, double 0x3FF9E3779B97F4A8>
  %30 = add i32 %21, -8
  %31 = icmp eq i32 %30, 0
  br i1 %31, label %32, label %19, !llvm.loop !9

32:                                               ; preds = %19, %13
  %33 = phi <2 x double> [ undef, %13 ], [ %29, %19 ]
  %34 = phi <2 x double> [ <double 1.000000e+00, double 1.000000e+00>, %13 ], [ %29, %19 ]
  %35 = icmp eq i32 %15, 0
  br i1 %35, label %42, label %36

36:                                               ; preds = %32, %36
  %37 = phi <2 x double> [ %39, %36 ], [ %34, %32 ]
  %38 = phi i32 [ %40, %36 ], [ %15, %32 ]
  %39 = fmul <2 x double> %37, <double 0xBFE3C6EF372FE950, double 0x3FF9E3779B97F4A8>
  %40 = add i32 %38, -1
  %41 = icmp eq i32 %40, 0
  br i1 %41, label %42, label %36, !llvm.loop !11

42:                                               ; preds = %32, %36, %8
  %43 = phi <2 x double> [ <double 1.000000e+00, double 1.000000e+00>, %8 ], [ %33, %32 ], [ %39, %36 ]
  %44 = shufflevector <2 x double> %43, <2 x double> poison, <2 x i32> <i32 1, i32 undef>
  %45 = fsub <2 x double> %44, %43
  %46 = extractelement <2 x double> %45, i64 0
  %47 = fdiv double %46, 0x4001E3779B97F4A8
  %48 = call nonnull align 8 dereferenceable(8) %"class.std::basic_ostream"* @_ZNSo9_M_insertIdEERSoT_(%"class.std::basic_ostream"* nonnull align 8 dereferenceable(8) @_ZSt4cout, double %47)
  %49 = bitcast %"class.std::basic_ostream"* %48 to i8**
  %50 = load i8*, i8** %49, align 8, !tbaa !13
  %51 = getelementptr i8, i8* %50, i64 -24
  %52 = bitcast i8* %51 to i64*
  %53 = load i64, i64* %52, align 8
  %54 = bitcast %"class.std::basic_ostream"* %48 to i8*
  %55 = add nsw i64 %53, 240
  %56 = getelementptr inbounds i8, i8* %54, i64 %55
  %57 = bitcast i8* %56 to %"class.std::ctype"**
  %58 = load %"class.std::ctype"*, %"class.std::ctype"** %57, align 8, !tbaa !15
  %59 = icmp eq %"class.std::ctype"* %58, null
  br i1 %59, label %60, label %61

60:                                               ; preds = %42
  call void @_ZSt16__throw_bad_castv() #8
  unreachable

61:                                               ; preds = %42
  %62 = getelementptr inbounds %"class.std::ctype", %"class.std::ctype"* %58, i64 0, i32 8
  %63 = load i8, i8* %62, align 8, !tbaa !19
  %64 = icmp eq i8 %63, 0
  br i1 %64, label %68, label %65

65:                                               ; preds = %61
  %66 = getelementptr inbounds %"class.std::ctype", %"class.std::ctype"* %58, i64 0, i32 9, i64 10
  %67 = load i8, i8* %66, align 1, !tbaa !21
  br label %74

68:                                               ; preds = %61
  call void @_ZNKSt5ctypeIcE13_M_widen_initEv(%"class.std::ctype"* nonnull align 8 dereferenceable(570) %58)
  %69 = bitcast %"class.std::ctype"* %58 to i8 (%"class.std::ctype"*, i8)***
  %70 = load i8 (%"class.std::ctype"*, i8)**, i8 (%"class.std::ctype"*, i8)*** %69, align 8, !tbaa !13
  %71 = getelementptr inbounds i8 (%"class.std::ctype"*, i8)*, i8 (%"class.std::ctype"*, i8)** %70, i64 6
  %72 = load i8 (%"class.std::ctype"*, i8)*, i8 (%"class.std::ctype"*, i8)** %71, align 8
  %73 = call signext i8 %72(%"class.std::ctype"* nonnull align 8 dereferenceable(570) %58, i8 signext 10)
  br label %74

74:                                               ; preds = %65, %68
  %75 = phi i8 [ %67, %65 ], [ %73, %68 ]
  %76 = call nonnull align 8 dereferenceable(8) %"class.std::basic_ostream"* @_ZNSo3putEc(%"class.std::basic_ostream"* nonnull align 8 dereferenceable(8) %48, i8 signext %75)
  %77 = call nonnull align 8 dereferenceable(8) %"class.std::basic_ostream"* @_ZNSo5flushEv(%"class.std::basic_ostream"* nonnull align 8 dereferenceable(8) %76)
  %78 = add nuw nsw i32 %9, 1
  %79 = load i32, i32* %2, align 4, !tbaa !5
  %80 = icmp slt i32 %9, %79
  br i1 %80, label %8, label %81, !llvm.loop !22

81:                                               ; preds = %74, %0
  call void @llvm.lifetime.end.p0i8(i64 4, i8* nonnull %4) #7
  call void @llvm.lifetime.end.p0i8(i64 4, i8* nonnull %3) #7
  ret i32 0
}

; Function Attrs: argmemonly mustprogress nofree nosync nounwind willreturn
declare void @llvm.lifetime.start.p0i8(i64 immarg, i8* nocapture) #4

declare nonnull align 8 dereferenceable(16) %"class.std::basic_istream"* @_ZNSirsERi(%"class.std::basic_istream"* nonnull align 8 dereferenceable(16), i32* nonnull align 4 dereferenceable(4)) local_unnamed_addr #0

; Function Attrs: argmemonly mustprogress nofree nosync nounwind willreturn
declare void @llvm.lifetime.end.p0i8(i64 immarg, i8* nocapture) #4

declare nonnull align 8 dereferenceable(8) %"class.std::basic_ostream"* @_ZNSo9_M_insertIdEERSoT_(%"class.std::basic_ostream"* nonnull align 8 dereferenceable(8), double) local_unnamed_addr #0

declare nonnull align 8 dereferenceable(8) %"class.std::basic_ostream"* @_ZNSo3putEc(%"class.std::basic_ostream"* nonnull align 8 dereferenceable(8), i8 signext) local_unnamed_addr #0

declare nonnull align 8 dereferenceable(8) %"class.std::basic_ostream"* @_ZNSo5flushEv(%"class.std::basic_ostream"* nonnull align 8 dereferenceable(8)) local_unnamed_addr #0

; Function Attrs: noreturn
declare void @_ZSt16__throw_bad_castv() local_unnamed_addr #5

declare void @_ZNKSt5ctypeIcE13_M_widen_initEv(%"class.std::ctype"* nonnull align 8 dereferenceable(570)) local_unnamed_addr #0

; Function Attrs: sspstrong uwtable
define internal void @_GLOBAL__sub_I_227.cpp() #6 section ".text.startup" {
  tail call void @_ZNSt8ios_base4InitC1Ev(%"class.std::ios_base::Init"* nonnull align 1 dereferenceable(1) @_ZStL8__ioinit)
  %1 = tail call i32 @__cxa_atexit(void (i8*)* bitcast (void (%"class.std::ios_base::Init"*)* @_ZNSt8ios_base4InitD1Ev to void (i8*)*), i8* getelementptr inbounds (%"class.std::ios_base::Init", %"class.std::ios_base::Init"* @_ZStL8__ioinit, i64 0, i32 0), i8* nonnull @__dso_handle) #7
  ret void
}


!llvm.module.flags = !{!0, !1, !2, !3}
!llvm.ident = !{!4}

!0 = !{i32 1, !"wchar_size", i32 4}
!1 = !{i32 7, !"PIC Level", i32 2}
!2 = !{i32 7, !"PIE Level", i32 2}
!3 = !{i32 7, !"uwtable", i32 1}
!4 = !{!"clang version 13.0.0"}
!5 = !{!6, !6, i64 0}
!6 = !{!"int", !7, i64 0}
!7 = !{!"omnipotent char", !8, i64 0}
!8 = !{!"Simple C++ TBAA"}
!9 = distinct !{!9, !10}
!10 = !{!"llvm.loop.mustprogress"}
!11 = distinct !{!11, !12}
!12 = !{!"llvm.loop.unroll.disable"}
!13 = !{!14, !14, i64 0}
!14 = !{!"vtable pointer", !8, i64 0}
!15 = !{!16, !17, i64 240}
!16 = !{!"_ZTSSt9basic_iosIcSt11char_traitsIcEE", !17, i64 216, !7, i64 224, !18, i64 225, !17, i64 232, !17, i64 240, !17, i64 248, !17, i64 256}
!17 = !{!"any pointer", !7, i64 0}
!18 = !{!"bool", !7, i64 0}
!19 = !{!20, !7, i64 56}
!20 = !{!"_ZTSSt5ctypeIcE", !17, i64 16, !18, i64 24, !17, i64 32, !17, i64 40, !17, i64 48, !7, i64 56, !7, i64 57, !7, i64 313, !7, i64 569}
!21 = !{!7, !7, i64 0}
!22 = distinct !{!22, !10}
